; Function Attrs: mustprogress nofree norecurse nosync nounwind willreturn memory(argmem: read) uwtable
define hidden noundef zeroext i1 @_ZNK15TypeMetadataPtr9singletonEv(ptr nocapture noundef nonnull readonly align 8 dereferenceable(56) %0) unnamed_addr #6 align 2 {
  %2 = getelementptr inbounds i8, ptr %0, i64 36
  %3 = load i32, ptr %2, align 4
  %4 = icmp eq i32 %3, 0
  %5 = getelementptr inbounds i8, ptr %0, i64 40
  %6 = load i32, ptr %5, align 8
  %7 = icmp slt i32 %6, 4
  %8 = select i1 %4, i1 %7, i1 false
  ret i1 %8
}